target datalayout = "e-m:e-p270:32:32-p271:32:32-p272:64:64-i64:64-i128:128-f80:128-n8:16:32:64-S128"
target triple = "x86_64-pc-linux-gnu"

%struct.anon.4 = type { i64, i64, %struct.elapsed_pass_s, i64, %struct.elapsed_pass_s, i64 }
%struct.elapsed_pass_s = type { i64, i64, i64 }
%struct.df_error_t = type { i32, ptr, %struct._dfilter_loc }
%struct._dfilter_loc = type { i64, i64 }

@.str.110 = private unnamed_addr constant [3 x i8] c"%s\00", align 1
@tshark_elapsed = internal global %struct.anon.4 zeroinitializer, align 8
@.str.326 = private unnamed_addr constant [7 x i8] c"    %s\00", align 1

; Function Attrs: null_pointer_is_valid sspstrong uwtable
define internal zeroext i1 @_compile_dfilter(ptr noundef %0, ptr noundef %1, ptr noundef %2) #0 {
  %4 = alloca i1, align 1
  %5 = alloca ptr, align 8
  %6 = alloca ptr, align 8
  %7 = alloca ptr, align 8
  %8 = alloca i8, align 1
  %9 = alloca ptr, align 8
  %10 = alloca ptr, align 8
  %11 = alloca ptr, align 8
  %12 = alloca i64, align 8
  %13 = alloca i32, align 4
  store ptr %0, ptr %5, align 8
  store ptr %1, ptr %6, align 8
  store ptr %2, ptr %7, align 8
  call void @llvm.lifetime.start.p0(i64 1, ptr %8) #19
  call void @llvm.lifetime.start.p0(i64 8, ptr %9) #19
  call void @llvm.lifetime.start.p0(i64 8, ptr %10) #19
  call void @llvm.lifetime.start.p0(i64 8, ptr %11) #19
  call void @llvm.lifetime.start.p0(i64 8, ptr %12) #19
  %14 = call i64 @g_get_monotonic_time()
  store i64 %14, ptr %12, align 8
  %15 = load ptr, ptr %5, align 8
  %16 = call ptr @dfilter_expand(ptr noundef %15, ptr noundef %9)
  store ptr %16, ptr %11, align 8
  %17 = load ptr, ptr %11, align 8
  %18 = icmp eq ptr %17, null
  br i1 %18, label %19, label %23

19:                                               ; preds = %3
  %20 = load ptr, ptr %9, align 8
  %21 = getelementptr inbounds nuw %struct.df_error_t, ptr %20, i32 0, i32 1
  %22 = load ptr, ptr %21, align 8
  call void (ptr, ...) @cmdarg_err(ptr noundef @.str.110, ptr noundef %22)
  call void @df_error_free(ptr noundef %9)
  store i1 false, ptr %4, align 1
  store i32 1, ptr %13, align 4
  br label %65

23:                                               ; preds = %3
  %24 = call i64 @g_get_monotonic_time()
  %25 = load i64, ptr %12, align 8
  %26 = sub i64 %24, %25
  store i64 %26, ptr @tshark_elapsed, align 8
  %27 = call i64 @g_get_monotonic_time()
  store i64 %27, ptr %12, align 8
  %28 = load ptr, ptr %11, align 8
  %29 = load ptr, ptr %6, align 8
  %30 = load ptr, ptr %7, align 8
  %31 = call zeroext i1 @dfilter_compile_full(ptr noundef %28, ptr noundef %29, ptr noundef %9, i32 noundef 4, ptr noundef %30)
  %32 = zext i1 %31 to i8
  store i8 %32, ptr %8, align 1
  %33 = load i8, ptr %8, align 1, !range !10, !noundef !11
  %34 = trunc i8 %33 to i1
  br i1 %34, label %58, label %35

35:                                               ; preds = %23
  %36 = load ptr, ptr %9, align 8
  %37 = getelementptr inbounds nuw %struct.df_error_t, ptr %36, i32 0, i32 1
  %38 = load ptr, ptr %37, align 8
  call void (ptr, ...) @cmdarg_err(ptr noundef @.str.110, ptr noundef %38)
  %39 = load ptr, ptr %9, align 8
  %40 = getelementptr inbounds nuw %struct.df_error_t, ptr %39, i32 0, i32 2
  %41 = getelementptr inbounds nuw %struct._dfilter_loc, ptr %40, i32 0, i32 0
  %42 = load i64, ptr %41, align 8
  %43 = icmp sge i64 %42, 0
  br i1 %43, label %44, label %57

44:                                               ; preds = %35
  %45 = load ptr, ptr %9, align 8
  %46 = getelementptr inbounds nuw %struct.df_error_t, ptr %45, i32 0, i32 2
  %47 = getelementptr inbounds nuw %struct._dfilter_loc, ptr %46, i32 0, i32 0
  %48 = load i64, ptr %47, align 8
  %49 = load ptr, ptr %9, align 8
  %50 = getelementptr inbounds nuw %struct.df_error_t, ptr %49, i32 0, i32 2
  %51 = getelementptr inbounds nuw %struct._dfilter_loc, ptr %50, i32 0, i32 1
  %52 = load i64, ptr %51, align 8
  %53 = call ptr @ws_strdup_underline(ptr noundef null, i64 noundef %48, i64 noundef %52)
  store ptr %53, ptr %10, align 8
  %54 = load ptr, ptr %11, align 8
  call void (ptr, ...) @cmdarg_err_cont(ptr noundef @.str.326, ptr noundef %54)
  %55 = load ptr, ptr %10, align 8
  call void (ptr, ...) @cmdarg_err_cont(ptr noundef @.str.326, ptr noundef %55)
  %56 = load ptr, ptr %10, align 8
  call void @g_free(ptr noundef %56)
  br label %57

57:                                               ; preds = %44, %35
  call void @df_error_free(ptr noundef %9)
  br label %58

58:                                               ; preds = %57, %23
  %59 = call i64 @g_get_monotonic_time()
  %60 = load i64, ptr %12, align 8
  %61 = sub i64 %59, %60
  store i64 %61, ptr getelementptr inbounds nuw (%struct.anon.4, ptr @tshark_elapsed, i32 0, i32 1), align 8
  %62 = load ptr, ptr %11, align 8
  call void @g_free(ptr noundef %62)
  %63 = load i8, ptr %8, align 1, !range !10, !noundef !11
  %64 = trunc i8 %63 to i1
  store i1 %64, ptr %4, align 1
  store i32 1, ptr %13, align 4
  br label %65

65:                                               ; preds = %58, %19
  call void @llvm.lifetime.end.p0(i64 8, ptr %12) #19
  call void @llvm.lifetime.end.p0(i64 8, ptr %11) #19
  call void @llvm.lifetime.end.p0(i64 8, ptr %10) #19
  call void @llvm.lifetime.end.p0(i64 8, ptr %9) #19
  call void @llvm.lifetime.end.p0(i64 1, ptr %8) #19
  %66 = load i1, ptr %4, align 1
  ret i1 %66
}