; Function Attrs: null_pointer_is_valid sspstrong uwtable
define internal fastcc noundef zeroext i1 @_compile_dfilter(ptr noundef %0, ptr noundef %1) unnamed_addr #0 {
  %3 = alloca ptr, align 8
  call void @llvm.lifetime.start.p0(i64 8, ptr nonnull %3) #20
  %4 = tail call i64 @g_get_monotonic_time()
  %5 = call ptr @dfilter_expand(ptr noundef %0, ptr noundef nonnull %3)
  %6 = icmp eq ptr %5, null
  br i1 %6, label %7, label %11

7:                                                ; preds = %2
  %8 = load ptr, ptr %3, align 8
  %9 = getelementptr inbounds nuw i8, ptr %8, i64 8
  %10 = load ptr, ptr %9, align 8
  call void (ptr, ...) @cmdarg_err(ptr noundef nonnull @.str.110, ptr noundef %10)
  call void @df_error_free(ptr noundef nonnull %3)
  br label %32

11:                                               ; preds = %2
  %12 = call i64 @g_get_monotonic_time()
  %13 = sub i64 %12, %4
  store i64 %13, ptr @tshark_elapsed.0, align 8
  %14 = call i64 @g_get_monotonic_time()
  %15 = call zeroext i1 @dfilter_compile_full(ptr noundef nonnull %5, ptr noundef %1, ptr noundef nonnull %3, i32 noundef 4, ptr noundef nonnull @__func__.main)
  br i1 %15, label %29, label %16

16:                                               ; preds = %11
  %17 = load ptr, ptr %3, align 8
  %18 = getelementptr inbounds nuw i8, ptr %17, i64 8
  %19 = load ptr, ptr %18, align 8
  call void (ptr, ...) @cmdarg_err(ptr noundef nonnull @.str.110, ptr noundef %19)
  %20 = load ptr, ptr %3, align 8
  %21 = getelementptr inbounds nuw i8, ptr %20, i64 16
  %22 = load i64, ptr %21, align 8
  %23 = icmp sgt i64 %22, -1
  br i1 %23, label %24, label %28

24:                                               ; preds = %16
  %25 = getelementptr inbounds nuw i8, ptr %20, i64 24
  %26 = load i64, ptr %25, align 8
  %27 = call ptr @ws_strdup_underline(ptr noundef null, i64 noundef %22, i64 noundef %26)
  call void (ptr, ...) @cmdarg_err_cont(ptr noundef nonnull @.str.326, ptr noundef nonnull %5)
  call void (ptr, ...) @cmdarg_err_cont(ptr noundef nonnull @.str.326, ptr noundef %27)
  call void @g_free(ptr noundef %27)
  br label %28

28:                                               ; preds = %24, %16
  call void @df_error_free(ptr noundef nonnull %3)
  br label %29

29:                                               ; preds = %28, %11
  %30 = call i64 @g_get_monotonic_time()
  %31 = sub i64 %30, %14
  store i64 %31, ptr @tshark_elapsed.1, align 8
  call void @g_free(ptr noundef nonnull %5)
  br label %32

32:                                               ; preds = %29, %7
  %.0 = phi i1 [ false, %7 ], [ %15, %29 ]
  call void @llvm.lifetime.end.p0(i64 8, ptr nonnull %3) #20
  ret i1 %.0
}